; Function Attrs: nounwind uwtable
define void @Gia_ObjCollectInternalCut_rec(ptr noundef %0, i32 noundef %1) local_unnamed_addr #2 {
  %3 = getelementptr i8, ptr %0, i64 928
  %.val18 = load ptr, ptr %3, align 8, !tbaa !58
  %4 = getelementptr i8, ptr %.val18, i64 8
  %.val18.val = load ptr, ptr %4, align 8, !tbaa !30
  %5 = sext i32 %1 to i64
  %6 = getelementptr inbounds i32, ptr %.val18.val, i64 %5
  %7 = load i32, ptr %6, align 4, !tbaa !31
  %8 = icmp slt i32 %7, -999999999
  br i1 %8, label %9, label %54

9:                                                ; preds = %2
  %10 = getelementptr i8, ptr %0, i64 32
  %.val14 = load ptr, ptr %10, align 8, !tbaa !3
  %11 = getelementptr inbounds %struct.Gia_Obj_t_, ptr %.val14, i64 %5
  %.val15 = load i64, ptr %11, align 4
  %12 = trunc i64 %.val15 to i32
  %13 = and i32 %12, 536870911
  %14 = sub nsw i32 %1, %13
  tail call void @Gia_ObjCollectInternalCut_rec(ptr noundef nonnull %0, i32 noundef %14)
  %.val = load ptr, ptr %10, align 8, !tbaa !3
  %15 = getelementptr inbounds %struct.Gia_Obj_t_, ptr %.val, i64 %5
  %.val16 = load i64, ptr %15, align 4
  %16 = lshr i64 %.val16, 32
  %17 = trunc nuw i64 %16 to i32
  %18 = and i32 %17, 536870911
  %19 = sub nsw i32 %1, %18
  tail call void @Gia_ObjCollectInternalCut_rec(ptr noundef nonnull %0, i32 noundef %19)
  %20 = getelementptr inbounds nuw i8, ptr %0, i64 936
  %21 = load ptr, ptr %20, align 8, !tbaa !57
  %22 = getelementptr i8, ptr %21, i64 4
  %.val17 = load i32, ptr %22, align 4, !tbaa !36
  %.val19 = load ptr, ptr %3, align 8, !tbaa !58
  %23 = getelementptr i8, ptr %.val19, i64 8
  %.val19.val = load ptr, ptr %23, align 8, !tbaa !30
  %24 = getelementptr inbounds i32, ptr %.val19.val, i64 %5
  store i32 %.val17, ptr %24, align 4, !tbaa !31
  %25 = load i32, ptr %21, align 8, !tbaa !37
  %26 = icmp eq i32 %.val17, %25
  br i1 %26, label %27, label %.Vec_IntGrow.exit10_crit_edge.i

.Vec_IntGrow.exit10_crit_edge.i:                  ; preds = %9
  %.phi.trans.insert.i = getelementptr inbounds nuw i8, ptr %21, i64 8
  %.pre.i = load ptr, ptr %.phi.trans.insert.i, align 8, !tbaa !30
  br label %Vec_IntPush.exit

27:                                               ; preds = %9
  %28 = icmp slt i32 %.val17, 16
  br i1 %28, label %29, label %37

29:                                               ; preds = %27
  %30 = getelementptr inbounds nuw i8, ptr %21, i64 8
  %31 = load ptr, ptr %30, align 8, !tbaa !30
  %.not9.i.i = icmp eq ptr %31, null
  br i1 %.not9.i.i, label %34, label %32

32:                                               ; preds = %29
  %33 = tail call dereferenceable_or_null(64) ptr @realloc(ptr noundef nonnull %31, i64 noundef 64) #25
  br label %Vec_IntGrow.exit.i

34:                                               ; preds = %29
  %35 = tail call noalias dereferenceable_or_null(64) ptr @malloc(i64 noundef 64) #24
  br label %Vec_IntGrow.exit.i

Vec_IntGrow.exit.i:                               ; preds = %34, %32
  %36 = phi ptr [ %33, %32 ], [ %35, %34 ]
  store ptr %36, ptr %30, align 8, !tbaa !30
  store i32 16, ptr %21, align 8, !tbaa !37
  br label %Vec_IntPush.exit

37:                                               ; preds = %27
  %38 = shl nuw nsw i32 %.val17, 1
  %39 = getelementptr inbounds nuw i8, ptr %21, i64 8
  %40 = load ptr, ptr %39, align 8, !tbaa !30
  %.not9.i9.i = icmp eq ptr %40, null
  %41 = zext nneg i32 %38 to i64
  %42 = shl nuw nsw i64 %41, 2
  br i1 %.not9.i9.i, label %45, label %43

43:                                               ; preds = %37
  %44 = tail call ptr @realloc(ptr noundef nonnull %40, i64 noundef %42) #25
  br label %47

45:                                               ; preds = %37
  %46 = tail call noalias ptr @malloc(i64 noundef %42) #24
  br label %47

47:                                               ; preds = %45, %43
  %48 = phi ptr [ %44, %43 ], [ %46, %45 ]
  store ptr %48, ptr %39, align 8, !tbaa !30
  store i32 %38, ptr %21, align 8, !tbaa !37
  br label %Vec_IntPush.exit

Vec_IntPush.exit:                                 ; preds = %.Vec_IntGrow.exit10_crit_edge.i, %Vec_IntGrow.exit.i, %47
  %49 = phi ptr [ %.pre.i, %.Vec_IntGrow.exit10_crit_edge.i ], [ %48, %47 ], [ %36, %Vec_IntGrow.exit.i ]
  %50 = load i32, ptr %22, align 4, !tbaa !36
  %51 = add nsw i32 %50, 1
  store i32 %51, ptr %22, align 4, !tbaa !36
  %52 = sext i32 %50 to i64
  %53 = getelementptr inbounds i32, ptr %49, i64 %52
  store i32 %1, ptr %53, align 4, !tbaa !31
  br label %54

54:                                               ; preds = %2, %Vec_IntPush.exit
  ret void
}